; Function Attrs: nounwind sspstrong uwtable
define dso_local void @tcg_gen_abs_i64(ptr noundef %0, ptr noundef %1) local_unnamed_addr #2 {
  %3 = tail call ptr @tcg_temp_ebb_new_i64() #6
  %4 = tail call ptr @tcg_constant_i64(i64 noundef 63) #6
  %5 = tail call align 8 ptr @llvm.threadlocal.address.p0(ptr align 8 @tcg_ctx)
  %6 = load ptr, ptr %5, align 8
  %7 = ptrtoint ptr %3 to i64
  %8 = getelementptr inbounds nuw i8, ptr %6, i64 %7
  %9 = ptrtoint ptr %8 to i64
  %10 = ptrtoint ptr %1 to i64
  %11 = getelementptr inbounds nuw i8, ptr %6, i64 %10
  %12 = ptrtoint ptr %11 to i64
  %13 = ptrtoint ptr %4 to i64
  %14 = getelementptr inbounds nuw i8, ptr %6, i64 %13
  %15 = ptrtoint ptr %14 to i64
  %16 = tail call ptr @tcg_gen_op3(i32 noundef 92, i32 noundef 1, i64 noundef %9, i64 noundef %12, i64 noundef %15)
  %17 = load ptr, ptr %5, align 8
  %18 = ptrtoint ptr %0 to i64
  %19 = getelementptr inbounds nuw i8, ptr %17, i64 %18
  %20 = ptrtoint ptr %19 to i64
  %21 = getelementptr inbounds nuw i8, ptr %17, i64 %10
  %22 = ptrtoint ptr %21 to i64
  %23 = getelementptr inbounds nuw i8, ptr %17, i64 %7
  %24 = ptrtoint ptr %23 to i64
  %25 = tail call ptr @tcg_gen_op3(i32 noundef 89, i32 noundef 1, i64 noundef %20, i64 noundef %22, i64 noundef %24)
  %26 = load ptr, ptr %5, align 8
  %27 = getelementptr inbounds nuw i8, ptr %26, i64 %18
  %28 = ptrtoint ptr %27 to i64
  %29 = getelementptr inbounds nuw i8, ptr %26, i64 %7
  %30 = ptrtoint ptr %29 to i64
  %31 = tail call ptr @tcg_gen_op3(i32 noundef 79, i32 noundef 1, i64 noundef %28, i64 noundef %28, i64 noundef %30)
  tail call void @tcg_temp_free_i64(ptr noundef %3) #6
  ret void
}